; Function Attrs: mustprogress null_pointer_is_valid sspstrong uwtable
define void @_ZN18Iax2AnalysisDialog14showStreamMenuE6QPoint(ptr noundef align 8 dereferenceable_or_null(10448) %0, i64 %1) local_unnamed_addr #0 align 2 {
  %3 = alloca %class.QPoint, align 8
  %4 = alloca %class.QPoint, align 8
  store i64 %1, ptr %3, align 8
  %5 = getelementptr inbounds nuw i8, ptr %0, i64 144
  %6 = load ptr, ptr %5, align 8
  %7 = getelementptr inbounds nuw i8, ptr %6, i64 112
  %8 = load ptr, ptr %7, align 8
  %9 = tail call noundef ptr @_ZNK10QTabWidget13currentWidgetEv(ptr noundef align 8 dereferenceable_or_null(40) %8)
  %10 = tail call noundef ptr @_ZNK11QMetaObject4castEPK7QObject(ptr noundef nonnull align 8 dereferenceable_or_null(56) @_ZN11QTreeWidget16staticMetaObjectE, ptr noundef %9)
  %.not = icmp eq ptr %10, null
  br i1 %.not, label %18, label %11

11:                                               ; preds = %2
  %12 = load ptr, ptr %0, align 8
  %13 = getelementptr inbounds nuw i8, ptr %12, i64 464
  %14 = load ptr, ptr %13, align 8
  tail call void %14(ptr noundef align 8 dereferenceable_or_null(10448) %0)
  %15 = getelementptr inbounds nuw i8, ptr %0, i64 10368
  call void @llvm.lifetime.start.p0(i64 8, ptr nonnull %4) #22
  %16 = tail call noundef ptr @_ZNK19QAbstractScrollArea8viewportEv(ptr noundef nonnull align 8 dereferenceable_or_null(40) %10)
  %17 = call i64 @_ZNK7QWidget11mapToGlobalERK6QPoint(ptr noundef align 8 dereferenceable_or_null(40) %16, ptr noundef nonnull align 4 dereferenceable(8) %3)
  store i64 %17, ptr %4, align 8
  call void @_ZN5QMenu5popupERK6QPointP7QAction(ptr noundef nonnull align 8 dereferenceable_or_null(40) %15, ptr noundef nonnull align 4 dereferenceable(8) %4, ptr noundef null)
  call void @llvm.lifetime.end.p0(i64 8, ptr nonnull %4) #22
  br label %18

18:                                               ; preds = %2, %11
  ret void
}